target datalayout = "e-m:e-p270:32:32-p271:32:32-p272:64:64-i64:64-i128:128-f80:128-n8:16:32:64-S128"
target triple = "x86_64-pc-linux-gnu"

%"class.LIEF::MachO::Relocation" = type { %"class.LIEF::Relocation.base", ptr, i8, i32, ptr, ptr }
%"class.LIEF::Relocation.base" = type <{ %"class.LIEF::Object", i64, i8 }>
%"class.LIEF::Object" = type { ptr }
%"class.LIEF::Relocation" = type <{ %"class.LIEF::Object", i64, i8, [7 x i8] }>

; Function Attrs: inlinehint mustprogress nounwind uwtable
define linkonce_odr void @_ZSt4swapImENSt9enable_ifIXsr6__and_ISt6__not_ISt15__is_tuple_likeIT_EESt21is_move_constructibleIS3_ESt18is_move_assignableIS3_EEE5valueEvE4typeERS3_SC_(ptr noundef nonnull align 8 dereferenceable(8) %0, ptr noundef nonnull align 8 dereferenceable(8) %1) #1 comdat {
  %3 = alloca ptr, align 8
  %4 = alloca ptr, align 8
  %5 = alloca i64, align 8
  store ptr %0, ptr %3, align 8, !tbaa !55
  store ptr %1, ptr %4, align 8, !tbaa !55
  call void @llvm.lifetime.start.p0(i64 8, ptr %5) #20
  %6 = load ptr, ptr %3, align 8, !tbaa !55
  %7 = load i64, ptr %6, align 8, !tbaa !25
  store i64 %7, ptr %5, align 8, !tbaa !25
  %8 = load ptr, ptr %4, align 8, !tbaa !55
  %9 = load i64, ptr %8, align 8, !tbaa !25
  %10 = load ptr, ptr %3, align 8, !tbaa !55
  store i64 %9, ptr %10, align 8, !tbaa !25
  %11 = load i64, ptr %5, align 8, !tbaa !25
  %12 = load ptr, ptr %4, align 8, !tbaa !55
  store i64 %11, ptr %12, align 8, !tbaa !25
  call void @llvm.lifetime.end.p0(i64 8, ptr %5) #20
  ret void
}

; Function Attrs: inlinehint mustprogress nounwind uwtable
define linkonce_odr void @_ZSt4swapIPN4LIEF5MachO14SegmentCommandEENSt9enable_ifIXsr6__and_ISt6__not_ISt15__is_tuple_likeIT_EESt21is_move_constructibleIS7_ESt18is_move_assignableIS7_EEE5valueEvE4typeERS7_SG_(ptr noundef nonnull align 8 dereferenceable(8) %0, ptr noundef nonnull align 8 dereferenceable(8) %1) #1 comdat {
  %3 = alloca ptr, align 8
  %4 = alloca ptr, align 8
  %5 = alloca ptr, align 8
  store ptr %0, ptr %3, align 8, !tbaa !40
  store ptr %1, ptr %4, align 8, !tbaa !40
  call void @llvm.lifetime.start.p0(i64 8, ptr %5) #20
  %6 = load ptr, ptr %3, align 8, !tbaa !40
  %7 = load ptr, ptr %6, align 8, !tbaa !42
  store ptr %7, ptr %5, align 8, !tbaa !42
  %8 = load ptr, ptr %4, align 8, !tbaa !40
  %9 = load ptr, ptr %8, align 8, !tbaa !42
  %10 = load ptr, ptr %3, align 8, !tbaa !40
  store ptr %9, ptr %10, align 8, !tbaa !42
  %11 = load ptr, ptr %5, align 8, !tbaa !42
  %12 = load ptr, ptr %4, align 8, !tbaa !40
  store ptr %11, ptr %12, align 8, !tbaa !42
  call void @llvm.lifetime.end.p0(i64 8, ptr %5) #20
  ret void
}

; Function Attrs: inlinehint mustprogress nounwind uwtable
define linkonce_odr void @_ZSt4swapIPN4LIEF5MachO7SectionEENSt9enable_ifIXsr6__and_ISt6__not_ISt15__is_tuple_likeIT_EESt21is_move_constructibleIS7_ESt18is_move_assignableIS7_EEE5valueEvE4typeERS7_SG_(ptr noundef nonnull align 8 dereferenceable(8) %0, ptr noundef nonnull align 8 dereferenceable(8) %1) #1 comdat {
  %3 = alloca ptr, align 8
  %4 = alloca ptr, align 8
  %5 = alloca ptr, align 8
  store ptr %0, ptr %3, align 8, !tbaa !37
  store ptr %1, ptr %4, align 8, !tbaa !37
  call void @llvm.lifetime.start.p0(i64 8, ptr %5) #20
  %6 = load ptr, ptr %3, align 8, !tbaa !37
  %7 = load ptr, ptr %6, align 8, !tbaa !39
  store ptr %7, ptr %5, align 8, !tbaa !39
  %8 = load ptr, ptr %4, align 8, !tbaa !37
  %9 = load ptr, ptr %8, align 8, !tbaa !39
  %10 = load ptr, ptr %3, align 8, !tbaa !37
  store ptr %9, ptr %10, align 8, !tbaa !39
  %11 = load ptr, ptr %5, align 8, !tbaa !39
  %12 = load ptr, ptr %4, align 8, !tbaa !37
  store ptr %11, ptr %12, align 8, !tbaa !39
  call void @llvm.lifetime.end.p0(i64 8, ptr %5) #20
  ret void
}

; Function Attrs: inlinehint mustprogress nounwind uwtable
define linkonce_odr void @_ZSt4swapIN4LIEF5MachO6Header8CPU_TYPEEENSt9enable_ifIXsr6__and_ISt6__not_ISt15__is_tuple_likeIT_EESt21is_move_constructibleIS7_ESt18is_move_assignableIS7_EEE5valueEvE4typeERS7_SG_(ptr noundef nonnull align 4 dereferenceable(4) %0, ptr noundef nonnull align 4 dereferenceable(4) %1) #1 comdat {
  %3 = alloca ptr, align 8
  %4 = alloca ptr, align 8
  %5 = alloca i32, align 4
  store ptr %0, ptr %3, align 8, !tbaa !35
  store ptr %1, ptr %4, align 8, !tbaa !35
  call void @llvm.lifetime.start.p0(i64 4, ptr %5) #20
  %6 = load ptr, ptr %3, align 8, !tbaa !35
  %7 = load i32, ptr %6, align 4, !tbaa !36
  store i32 %7, ptr %5, align 4, !tbaa !36
  %8 = load ptr, ptr %4, align 8, !tbaa !35
  %9 = load i32, ptr %8, align 4, !tbaa !36
  %10 = load ptr, ptr %3, align 8, !tbaa !35
  store i32 %9, ptr %10, align 4, !tbaa !36
  %11 = load i32, ptr %5, align 4, !tbaa !36
  %12 = load ptr, ptr %4, align 8, !tbaa !35
  store i32 %11, ptr %12, align 4, !tbaa !36
  call void @llvm.lifetime.end.p0(i64 4, ptr %5) #20
  ret void
}

; Function Attrs: inlinehint mustprogress nounwind uwtable
define linkonce_odr void @_ZSt4swapIhENSt9enable_ifIXsr6__and_ISt6__not_ISt15__is_tuple_likeIT_EESt21is_move_constructibleIS3_ESt18is_move_assignableIS3_EEE5valueEvE4typeERS3_SC_(ptr noundef nonnull align 1 dereferenceable(1) %0, ptr noundef nonnull align 1 dereferenceable(1) %1) #1 comdat {
  %3 = alloca ptr, align 8
  %4 = alloca ptr, align 8
  %5 = alloca i8, align 1
  store ptr %0, ptr %3, align 8, !tbaa !33
  store ptr %1, ptr %4, align 8, !tbaa !33
  call void @llvm.lifetime.start.p0(i64 1, ptr %5) #20
  %6 = load ptr, ptr %3, align 8, !tbaa !33
  %7 = load i8, ptr %6, align 1, !tbaa !26
  store i8 %7, ptr %5, align 1, !tbaa !26
  %8 = load ptr, ptr %4, align 8, !tbaa !33
  %9 = load i8, ptr %8, align 1, !tbaa !26
  %10 = load ptr, ptr %3, align 8, !tbaa !33
  store i8 %9, ptr %10, align 1, !tbaa !26
  %11 = load i8, ptr %5, align 1, !tbaa !26
  %12 = load ptr, ptr %4, align 8, !tbaa !33
  store i8 %11, ptr %12, align 1, !tbaa !26
  call void @llvm.lifetime.end.p0(i64 1, ptr %5) #20
  ret void
}

; Function Attrs: inlinehint mustprogress nounwind uwtable
define linkonce_odr void @_ZSt4swapIPN4LIEF5MachO6SymbolEENSt9enable_ifIXsr6__and_ISt6__not_ISt15__is_tuple_likeIT_EESt21is_move_constructibleIS7_ESt18is_move_assignableIS7_EEE5valueEvE4typeERS7_SG_(ptr noundef nonnull align 8 dereferenceable(8) %0, ptr noundef nonnull align 8 dereferenceable(8) %1) #1 comdat {
  %3 = alloca ptr, align 8
  %4 = alloca ptr, align 8
  %5 = alloca ptr, align 8
  store ptr %0, ptr %3, align 8, !tbaa !29
  store ptr %1, ptr %4, align 8, !tbaa !29
  call void @llvm.lifetime.start.p0(i64 8, ptr %5) #20
  %6 = load ptr, ptr %3, align 8, !tbaa !29
  %7 = load ptr, ptr %6, align 8, !tbaa !32
  store ptr %7, ptr %5, align 8, !tbaa !32
  %8 = load ptr, ptr %4, align 8, !tbaa !29
  %9 = load ptr, ptr %8, align 8, !tbaa !32
  %10 = load ptr, ptr %3, align 8, !tbaa !29
  store ptr %9, ptr %10, align 8, !tbaa !32
  %11 = load ptr, ptr %5, align 8, !tbaa !32
  %12 = load ptr, ptr %4, align 8, !tbaa !29
  store ptr %11, ptr %12, align 8, !tbaa !32
  call void @llvm.lifetime.end.p0(i64 8, ptr %5) #20
  ret void
}

; Function Attrs: mustprogress nounwind uwtable
define linkonce_odr hidden void @_ZN4LIEF10Relocation4swapERS0_(ptr noundef nonnull align 8 dereferenceable(17) %0, ptr noundef nonnull align 8 dereferenceable(17) %1) #0 comdat align 2 {
  %3 = alloca ptr, align 8
  %4 = alloca ptr, align 8
  store ptr %0, ptr %3, align 8, !tbaa !23
  store ptr %1, ptr %4, align 8, !tbaa !23
  %5 = load ptr, ptr %3, align 8
  %6 = getelementptr inbounds nuw %"class.LIEF::Relocation", ptr %5, i32 0, i32 1
  %7 = load ptr, ptr %4, align 8, !tbaa !23
  %8 = getelementptr inbounds nuw %"class.LIEF::Relocation", ptr %7, i32 0, i32 1
  call void @_ZSt4swapImENSt9enable_ifIXsr6__and_ISt6__not_ISt15__is_tuple_likeIT_EESt21is_move_constructibleIS3_ESt18is_move_assignableIS3_EEE5valueEvE4typeERS3_SC_(ptr noundef nonnull align 8 dereferenceable(8) %6, ptr noundef nonnull align 8 dereferenceable(8) %8) #20
  %9 = getelementptr inbounds nuw %"class.LIEF::Relocation", ptr %5, i32 0, i32 2
  %10 = load ptr, ptr %4, align 8, !tbaa !23
  %11 = getelementptr inbounds nuw %"class.LIEF::Relocation", ptr %10, i32 0, i32 2
  call void @_ZSt4swapIhENSt9enable_ifIXsr6__and_ISt6__not_ISt15__is_tuple_likeIT_EESt21is_move_constructibleIS3_ESt18is_move_assignableIS3_EEE5valueEvE4typeERS3_SC_(ptr noundef nonnull align 1 dereferenceable(1) %9, ptr noundef nonnull align 1 dereferenceable(1) %11) #20
  ret void
}

; Function Attrs: mustprogress nounwind uwtable
define void @_ZN4LIEF5MachO10Relocation4swapERS1_(ptr noundef nonnull align 8 dereferenceable(56) %0, ptr noundef nonnull align 8 dereferenceable(56) %1) #0 align 2 {
  %3 = alloca ptr, align 8
  %4 = alloca ptr, align 8
  store ptr %0, ptr %3, align 8, !tbaa !3
  store ptr %1, ptr %4, align 8, !tbaa !3
  %5 = load ptr, ptr %3, align 8
  %6 = load ptr, ptr %4, align 8, !tbaa !3
  call void @_ZN4LIEF10Relocation4swapERS0_(ptr noundef nonnull align 8 dereferenceable(17) %5, ptr noundef nonnull align 8 dereferenceable(17) %6)
  %7 = getelementptr inbounds nuw %"class.LIEF::MachO::Relocation", ptr %5, i32 0, i32 1
  %8 = load ptr, ptr %4, align 8, !tbaa !3
  %9 = getelementptr inbounds nuw %"class.LIEF::MachO::Relocation", ptr %8, i32 0, i32 1
  call void @_ZSt4swapIPN4LIEF5MachO6SymbolEENSt9enable_ifIXsr6__and_ISt6__not_ISt15__is_tuple_likeIT_EESt21is_move_constructibleIS7_ESt18is_move_assignableIS7_EEE5valueEvE4typeERS7_SG_(ptr noundef nonnull align 8 dereferenceable(8) %7, ptr noundef nonnull align 8 dereferenceable(8) %9) #20
  %10 = getelementptr inbounds nuw %"class.LIEF::MachO::Relocation", ptr %5, i32 0, i32 2
  %11 = load ptr, ptr %4, align 8, !tbaa !3
  %12 = getelementptr inbounds nuw %"class.LIEF::MachO::Relocation", ptr %11, i32 0, i32 2
  call void @_ZSt4swapIhENSt9enable_ifIXsr6__and_ISt6__not_ISt15__is_tuple_likeIT_EESt21is_move_constructibleIS3_ESt18is_move_assignableIS3_EEE5valueEvE4typeERS3_SC_(ptr noundef nonnull align 1 dereferenceable(1) %10, ptr noundef nonnull align 1 dereferenceable(1) %12) #20
  %13 = getelementptr inbounds nuw %"class.LIEF::MachO::Relocation", ptr %5, i32 0, i32 3
  %14 = load ptr, ptr %4, align 8, !tbaa !3
  %15 = getelementptr inbounds nuw %"class.LIEF::MachO::Relocation", ptr %14, i32 0, i32 3
  call void @_ZSt4swapIN4LIEF5MachO6Header8CPU_TYPEEENSt9enable_ifIXsr6__and_ISt6__not_ISt15__is_tuple_likeIT_EESt21is_move_constructibleIS7_ESt18is_move_assignableIS7_EEE5valueEvE4typeERS7_SG_(ptr noundef nonnull align 4 dereferenceable(4) %13, ptr noundef nonnull align 4 dereferenceable(4) %15) #20
  %16 = getelementptr inbounds nuw %"class.LIEF::MachO::Relocation", ptr %5, i32 0, i32 4
  %17 = load ptr, ptr %4, align 8, !tbaa !3
  %18 = getelementptr inbounds nuw %"class.LIEF::MachO::Relocation", ptr %17, i32 0, i32 4
  call void @_ZSt4swapIPN4LIEF5MachO7SectionEENSt9enable_ifIXsr6__and_ISt6__not_ISt15__is_tuple_likeIT_EESt21is_move_constructibleIS7_ESt18is_move_assignableIS7_EEE5valueEvE4typeERS7_SG_(ptr noundef nonnull align 8 dereferenceable(8) %16, ptr noundef nonnull align 8 dereferenceable(8) %18) #20
  %19 = getelementptr inbounds nuw %"class.LIEF::MachO::Relocation", ptr %5, i32 0, i32 5
  %20 = load ptr, ptr %4, align 8, !tbaa !3
  %21 = getelementptr inbounds nuw %"class.LIEF::MachO::Relocation", ptr %20, i32 0, i32 5
  call void @_ZSt4swapIPN4LIEF5MachO14SegmentCommandEENSt9enable_ifIXsr6__and_ISt6__not_ISt15__is_tuple_likeIT_EESt21is_move_constructibleIS7_ESt18is_move_assignableIS7_EEE5valueEvE4typeERS7_SG_(ptr noundef nonnull align 8 dereferenceable(8) %19, ptr noundef nonnull align 8 dereferenceable(8) %21) #20
  ret void
}