; Function Attrs: mustprogress nofree norecurse nosync nounwind willreturn memory(argmem: readwrite) uwtable
define void @_ZN4LIEF5MachO10Relocation4swapERS1_(ptr noundef nonnull align 8 captures(none) dereferenceable(56) %0, ptr noundef nonnull align 8 captures(none) dereferenceable(56) %1) local_unnamed_addr #1 align 2 {
  %3 = getelementptr inbounds nuw i8, ptr %0, i64 8
  %4 = getelementptr inbounds nuw i8, ptr %1, i64 8
  %5 = load i64, ptr %3, align 8, !tbaa !21
  %6 = load i64, ptr %4, align 8, !tbaa !21
  store i64 %6, ptr %3, align 8, !tbaa !21
  store i64 %5, ptr %4, align 8, !tbaa !21
  %7 = getelementptr inbounds nuw i8, ptr %0, i64 16
  %8 = getelementptr inbounds nuw i8, ptr %1, i64 16
  %9 = load i8, ptr %7, align 8, !tbaa !22
  %10 = load i8, ptr %8, align 8, !tbaa !22
  store i8 %10, ptr %7, align 8, !tbaa !22
  store i8 %9, ptr %8, align 8, !tbaa !22
  %11 = getelementptr inbounds nuw i8, ptr %0, i64 24
  %12 = getelementptr inbounds nuw i8, ptr %1, i64 24
  %13 = load ptr, ptr %11, align 8, !tbaa !23
  %14 = load ptr, ptr %12, align 8, !tbaa !23
  store ptr %14, ptr %11, align 8, !tbaa !23
  store ptr %13, ptr %12, align 8, !tbaa !23
  %15 = getelementptr inbounds nuw i8, ptr %0, i64 32
  %16 = getelementptr inbounds nuw i8, ptr %1, i64 32
  %17 = load i8, ptr %15, align 8, !tbaa !22
  %18 = load i8, ptr %16, align 8, !tbaa !22
  store i8 %18, ptr %15, align 8, !tbaa !22
  store i8 %17, ptr %16, align 8, !tbaa !22
  %19 = getelementptr inbounds nuw i8, ptr %0, i64 36
  %20 = getelementptr inbounds nuw i8, ptr %1, i64 36
  %21 = load i32, ptr %19, align 4, !tbaa !24
  %22 = load i32, ptr %20, align 4, !tbaa !24
  store i32 %22, ptr %19, align 4, !tbaa !24
  store i32 %21, ptr %20, align 4, !tbaa !24
  %23 = getelementptr inbounds nuw i8, ptr %0, i64 40
  %24 = getelementptr inbounds nuw i8, ptr %1, i64 40
  %25 = load ptr, ptr %23, align 8, !tbaa !25
  %26 = load ptr, ptr %24, align 8, !tbaa !25
  store ptr %26, ptr %23, align 8, !tbaa !25
  store ptr %25, ptr %24, align 8, !tbaa !25
  %27 = getelementptr inbounds nuw i8, ptr %0, i64 48
  %28 = getelementptr inbounds nuw i8, ptr %1, i64 48
  %29 = load ptr, ptr %27, align 8, !tbaa !26
  %30 = load ptr, ptr %28, align 8, !tbaa !26
  store ptr %30, ptr %27, align 8, !tbaa !26
  store ptr %29, ptr %28, align 8, !tbaa !26
  ret void
}